target datalayout = "e-m:e-p270:32:32-p271:32:32-p272:64:64-i64:64-i128:128-f80:128-n8:16:32:64-S128"
target triple = "x86_64-pc-linux-gnu"

%struct.cdf_header_t = type { i64, [2 x i64], i16, i16, i16, i16, i16, [10 x i8], i32, i32, [4 x i8], i32, i32, i32, i32, i32, [109 x i32] }
%struct.cdf_stream_t = type { ptr, i64, i64, i64 }

; Function Attrs: nounwind uwtable
define hidden i32 @cdf_read_sector_chain(ptr noundef %0, ptr noundef %1, ptr noundef %2, ptr noundef %3, ptr noundef %4, i32 noundef %5, i64 noundef %6, ptr noundef %7) #0 {
  %9 = alloca i32, align 4
  %10 = alloca ptr, align 8
  %11 = alloca ptr, align 8
  %12 = alloca ptr, align 8
  %13 = alloca ptr, align 8
  %14 = alloca ptr, align 8
  %15 = alloca i32, align 4
  %16 = alloca i64, align 8
  %17 = alloca ptr, align 8
  store ptr %0, ptr %10, align 8, !tbaa !16
  store ptr %1, ptr %11, align 8, !tbaa !16
  store ptr %2, ptr %12, align 8, !tbaa !16
  store ptr %3, ptr %13, align 8, !tbaa !16
  store ptr %4, ptr %14, align 8, !tbaa !16
  store i32 %5, ptr %15, align 4, !tbaa !12
  store i64 %6, ptr %16, align 8, !tbaa !14
  store ptr %7, ptr %17, align 8, !tbaa !16
  %18 = load i64, ptr %16, align 8, !tbaa !14
  %19 = load ptr, ptr %11, align 8, !tbaa !16
  %20 = getelementptr inbounds nuw %struct.cdf_header_t, ptr %19, i32 0, i32 11
  %21 = load i32, ptr %20, align 8, !tbaa !26
  %22 = zext i32 %21 to i64
  %23 = icmp ult i64 %18, %22
  br i1 %23, label %24, label %37

24:                                               ; preds = %8
  %25 = load ptr, ptr %14, align 8, !tbaa !16
  %26 = getelementptr inbounds nuw %struct.cdf_stream_t, ptr %25, i32 0, i32 0
  %27 = load ptr, ptr %26, align 8, !tbaa !47
  %28 = icmp ne ptr %27, null
  br i1 %28, label %29, label %37

29:                                               ; preds = %24
  %30 = load ptr, ptr %11, align 8, !tbaa !16
  %31 = load ptr, ptr %13, align 8, !tbaa !16
  %32 = load ptr, ptr %14, align 8, !tbaa !16
  %33 = load i32, ptr %15, align 4, !tbaa !12
  %34 = load i64, ptr %16, align 8, !tbaa !14
  %35 = load ptr, ptr %17, align 8, !tbaa !16
  %36 = call i32 @cdf_read_short_sector_chain(ptr noundef %30, ptr noundef %31, ptr noundef %32, i32 noundef %33, i64 noundef %34, ptr noundef %35)
  store i32 %36, ptr %9, align 4
  br label %45

37:                                               ; preds = %24, %8
  %38 = load ptr, ptr %10, align 8, !tbaa !16
  %39 = load ptr, ptr %11, align 8, !tbaa !16
  %40 = load ptr, ptr %12, align 8, !tbaa !16
  %41 = load i32, ptr %15, align 4, !tbaa !12
  %42 = load i64, ptr %16, align 8, !tbaa !14
  %43 = load ptr, ptr %17, align 8, !tbaa !16
  %44 = call i32 @cdf_read_long_sector_chain(ptr noundef %38, ptr noundef %39, ptr noundef %40, i32 noundef %41, i64 noundef %42, ptr noundef %43)
  store i32 %44, ptr %9, align 4
  br label %45

45:                                               ; preds = %37, %29
  %46 = load i32, ptr %9, align 4
  ret i32 %46
}