; Function Attrs: nounwind uwtable
define hidden range(i32 -1, 1) i32 @cdf_read_sector_chain(ptr noundef readonly captures(none) %0, ptr noundef readonly captures(none) %1, ptr noundef readonly captures(none) %2, ptr noundef readonly captures(none) %3, ptr noundef readonly captures(none) %4, i32 noundef %5, i64 noundef %6, ptr noundef captures(none) initializes((0, 8)) %7) local_unnamed_addr #7 {
  %9 = getelementptr inbounds nuw i8, ptr %1, i64 56
  %10 = load i32, ptr %9, align 8, !tbaa !29
  %11 = zext i32 %10 to i64
  %12 = icmp ult i64 %6, %11
  br i1 %12, label %13, label %17

13:                                               ; preds = %8
  %14 = load ptr, ptr %4, align 8, !tbaa !4
  %.not = icmp eq ptr %14, null
  br i1 %.not, label %17, label %15

15:                                               ; preds = %13
  %16 = tail call i32 @cdf_read_short_sector_chain(ptr noundef nonnull %1, ptr noundef %3, ptr noundef nonnull %4, i32 noundef %5, i64 noundef %6, ptr noundef %7)
  br label %19

17:                                               ; preds = %13, %8
  %18 = tail call i32 @cdf_read_long_sector_chain(ptr noundef %0, ptr noundef nonnull %1, ptr noundef %2, i32 noundef %5, i64 noundef %6, ptr noundef %7)
  br label %19

19:                                               ; preds = %17, %15
  %.0 = phi i32 [ %16, %15 ], [ %18, %17 ]
  ret i32 %.0
}